; Function Attrs: mustprogress nounwind uwtable
define hidden void @_ZN14ShenandoahHeap21initialize_heuristicsEv(ptr nocapture noundef nonnull align 8 dereferenceable(2657) %0) local_unnamed_addr #1 align 2 {
  %2 = alloca %class.FormatBuffer.3, align 8
  %3 = alloca %class.FormatBuffer.3, align 8
  %4 = getelementptr inbounds i8, ptr %0, i64 1640
  %5 = load ptr, ptr %4, align 8
  %6 = load ptr, ptr %5, align 8
  %7 = getelementptr inbounds i8, ptr %6, i64 8
  %8 = load ptr, ptr %7, align 8
  %9 = tail call noundef ptr %8(ptr noundef nonnull align 8 dereferenceable(8) %5) #26
  %10 = getelementptr inbounds i8, ptr %0, i64 1648
  store ptr %9, ptr %10, align 8
  %11 = load ptr, ptr %9, align 8
  %12 = getelementptr inbounds i8, ptr %11, i64 128
  %13 = load ptr, ptr %12, align 8
  %14 = tail call noundef zeroext i1 %13(ptr noundef nonnull align 8 dereferenceable(193) %9) #26
  br i1 %14, label %15, label %25

15:                                               ; preds = %1
  %16 = load i8, ptr @UnlockDiagnosticVMOptions, align 1
  %17 = trunc i8 %16 to i1
  br i1 %17, label %25, label %18

18:                                               ; preds = %15
  %19 = load ptr, ptr %10, align 8
  %20 = load ptr, ptr %19, align 8
  %21 = getelementptr inbounds i8, ptr %20, i64 120
  %22 = load ptr, ptr %21, align 8
  %23 = tail call noundef ptr %22(ptr noundef nonnull align 8 dereferenceable(193) %19) #26
  call void (ptr, ptr, ...) @_ZN12FormatBufferILm256EEC2EPKcz(ptr noundef nonnull align 8 dereferenceable(264) %2, ptr noundef nonnull @.str.32, ptr noundef %23)
  %24 = load ptr, ptr %2, align 8
  call void @_Z29vm_exit_during_initializationPKcS0_(ptr noundef %24, ptr noundef null) #26
  br label %25

25:                                               ; preds = %18, %15, %1
  %26 = load ptr, ptr %10, align 8
  %27 = load ptr, ptr %26, align 8
  %28 = getelementptr inbounds i8, ptr %27, i64 136
  %29 = load ptr, ptr %28, align 8
  %30 = call noundef zeroext i1 %29(ptr noundef nonnull align 8 dereferenceable(193) %26) #26
  br i1 %30, label %31, label %41

31:                                               ; preds = %25
  %32 = load i8, ptr @UnlockExperimentalVMOptions, align 1
  %33 = trunc i8 %32 to i1
  br i1 %33, label %41, label %34

34:                                               ; preds = %31
  %35 = load ptr, ptr %10, align 8
  %36 = load ptr, ptr %35, align 8
  %37 = getelementptr inbounds i8, ptr %36, i64 120
  %38 = load ptr, ptr %37, align 8
  %39 = call noundef ptr %38(ptr noundef nonnull align 8 dereferenceable(193) %35) #26
  call void (ptr, ptr, ...) @_ZN12FormatBufferILm256EEC2EPKcz(ptr noundef nonnull align 8 dereferenceable(264) %3, ptr noundef nonnull @.str.33, ptr noundef %39)
  %40 = load ptr, ptr %3, align 8
  call void @_Z29vm_exit_during_initializationPKcS0_(ptr noundef %40, ptr noundef null) #26
  br label %41

41:                                               ; preds = %34, %31, %25
  ret void
}